target datalayout = "e-m:e-p270:32:32-p271:32:32-p272:64:64-i64:64-i128:128-f80:128-n8:16:32:64-S128"
target triple = "x86_64-pc-linux-gnu"

%struct.DdNode = type { i32, i32, ptr, %union.anon, i64 }
%union.anon = type { %struct.DdChildren }
%struct.DdChildren = type { ptr, ptr }
%struct.DdManager = type { %struct.DdNode, ptr, ptr, ptr, ptr, ptr, ptr, ptr, i32, i32, double, double, double, i32, i32, i32, i32, i32, i32, ptr, ptr, %struct.DdSubtable, i32, i32, i32, i32, i32, i32, i32, double, i32, i32, i32, ptr, i64, double, i32, ptr, ptr, ptr, ptr, ptr, ptr, ptr, i32, ptr, ptr, ptr, ptr, ptr, ptr, i32, i32, i32, double, i32, i32, i32, i32, double, double, i32, i32, i32, i32, i32, i32, i32, i32, i32, ptr, ptr, i32, i32, i32, i32, i32, i32, ptr, ptr, ptr, ptr, ptr, ptr, ptr, ptr, i32, i64, i64, i64, i32, i64, i64, double, double, double, double, double, double, i32, ptr, ptr, i64 }
%struct.DdSubtable = type { ptr, i32, i32, i32, i32, i32, i32, i32, i32, i32, i32, i32 }

; Function Attrs: nounwind uwtable
define void @Cudd_RecursiveDeref(ptr noundef %0, ptr noundef %1) #0 {
  %3 = alloca ptr, align 8
  %4 = alloca ptr, align 8
  %5 = alloca ptr, align 8
  %6 = alloca i32, align 4
  %7 = alloca ptr, align 8
  %8 = alloca i32, align 4
  %9 = alloca i32, align 4
  store ptr %0, ptr %3, align 8, !tbaa !12
  store ptr %1, ptr %4, align 8, !tbaa !3
  call void @llvm.lifetime.start.p0(i64 8, ptr %5) #4
  call void @llvm.lifetime.start.p0(i64 4, ptr %6) #4
  call void @llvm.lifetime.start.p0(i64 8, ptr %7) #4
  %10 = load ptr, ptr %3, align 8, !tbaa !12
  %11 = getelementptr inbounds nuw %struct.DdManager, ptr %10, i32 0, i32 33
  %12 = load ptr, ptr %11, align 8, !tbaa !14
  store ptr %12, ptr %7, align 8, !tbaa !28
  call void @llvm.lifetime.start.p0(i64 4, ptr %8) #4
  store i32 1, ptr %8, align 4, !tbaa !29
  call void @llvm.lifetime.start.p0(i64 4, ptr %9) #4
  %13 = load ptr, ptr %3, align 8, !tbaa !12
  %14 = getelementptr inbounds nuw %struct.DdManager, ptr %13, i32 0, i32 23
  %15 = load i32, ptr %14, align 4, !tbaa !30
  %16 = load ptr, ptr %3, align 8, !tbaa !12
  %17 = getelementptr inbounds nuw %struct.DdManager, ptr %16, i32 0, i32 25
  %18 = load i32, ptr %17, align 4, !tbaa !31
  %19 = sub i32 %15, %18
  store i32 %19, ptr %9, align 4, !tbaa !29
  %20 = load i32, ptr %9, align 4, !tbaa !29
  %21 = load ptr, ptr %3, align 8, !tbaa !12
  %22 = getelementptr inbounds nuw %struct.DdManager, ptr %21, i32 0, i32 99
  %23 = load i32, ptr %22, align 8, !tbaa !32
  %24 = icmp ugt i32 %20, %23
  br i1 %24, label %25, label %29

25:                                               ; preds = %2
  %26 = load i32, ptr %9, align 4, !tbaa !29
  %27 = load ptr, ptr %3, align 8, !tbaa !12
  %28 = getelementptr inbounds nuw %struct.DdManager, ptr %27, i32 0, i32 99
  store i32 %26, ptr %28, align 8, !tbaa !32
  br label %29

29:                                               ; preds = %25, %2
  %30 = load ptr, ptr %4, align 8, !tbaa !3
  %31 = ptrtoint ptr %30 to i64
  %32 = and i64 %31, -2
  %33 = inttoptr i64 %32 to ptr
  store ptr %33, ptr %5, align 8, !tbaa !3
  br label %34

34:                                               ; preds = %110, %29
  %35 = load ptr, ptr %5, align 8, !tbaa !3
  %36 = getelementptr inbounds nuw %struct.DdNode, ptr %35, i32 0, i32 1
  %37 = load i32, ptr %36, align 4, !tbaa !8
  %38 = icmp eq i32 %37, 1
  br i1 %38, label %39, label %98

39:                                               ; preds = %34
  %40 = load ptr, ptr %5, align 8, !tbaa !3
  %41 = getelementptr inbounds nuw %struct.DdNode, ptr %40, i32 0, i32 1
  store i32 0, ptr %41, align 4, !tbaa !8
  %42 = load ptr, ptr %3, align 8, !tbaa !12
  %43 = getelementptr inbounds nuw %struct.DdManager, ptr %42, i32 0, i32 25
  %44 = load i32, ptr %43, align 4, !tbaa !31
  %45 = add i32 %44, 1
  store i32 %45, ptr %43, align 4, !tbaa !31
  %46 = load ptr, ptr %5, align 8, !tbaa !3
  %47 = getelementptr inbounds nuw %struct.DdNode, ptr %46, i32 0, i32 0
  %48 = load i32, ptr %47, align 8, !tbaa !33
  %49 = icmp eq i32 %48, 2147483647
  br i1 %49, label %50, label %62

50:                                               ; preds = %39
  %51 = load ptr, ptr %3, align 8, !tbaa !12
  %52 = getelementptr inbounds nuw %struct.DdManager, ptr %51, i32 0, i32 21
  %53 = getelementptr inbounds nuw %struct.DdSubtable, ptr %52, i32 0, i32 5
  %54 = load i32, ptr %53, align 8, !tbaa !34
  %55 = add i32 %54, 1
  store i32 %55, ptr %53, align 8, !tbaa !34
  %56 = load ptr, ptr %7, align 8, !tbaa !28
  %57 = load i32, ptr %8, align 4, !tbaa !29
  %58 = add nsw i32 %57, -1
  store i32 %58, ptr %8, align 4, !tbaa !29
  %59 = sext i32 %58 to i64
  %60 = getelementptr inbounds ptr, ptr %56, i64 %59
  %61 = load ptr, ptr %60, align 8, !tbaa !3
  store ptr %61, ptr %5, align 8, !tbaa !3
  br label %97

62:                                               ; preds = %39
  %63 = load ptr, ptr %3, align 8, !tbaa !12
  %64 = getelementptr inbounds nuw %struct.DdManager, ptr %63, i32 0, i32 37
  %65 = load ptr, ptr %64, align 8, !tbaa !35
  %66 = load ptr, ptr %5, align 8, !tbaa !3
  %67 = getelementptr inbounds nuw %struct.DdNode, ptr %66, i32 0, i32 0
  %68 = load i32, ptr %67, align 8, !tbaa !33
  %69 = zext i32 %68 to i64
  %70 = getelementptr inbounds nuw i32, ptr %65, i64 %69
  %71 = load i32, ptr %70, align 4, !tbaa !29
  store i32 %71, ptr %6, align 4, !tbaa !29
  %72 = load ptr, ptr %5, align 8, !tbaa !3
  %73 = getelementptr inbounds nuw %struct.DdNode, ptr %72, i32 0, i32 3
  %74 = getelementptr inbounds nuw %struct.DdChildren, ptr %73, i32 0, i32 1
  %75 = load ptr, ptr %74, align 8, !tbaa !36
  %76 = ptrtoint ptr %75 to i64
  %77 = and i64 %76, -2
  %78 = inttoptr i64 %77 to ptr
  %79 = load ptr, ptr %7, align 8, !tbaa !28
  %80 = load i32, ptr %8, align 4, !tbaa !29
  %81 = add nsw i32 %80, 1
  store i32 %81, ptr %8, align 4, !tbaa !29
  %82 = sext i32 %80 to i64
  %83 = getelementptr inbounds ptr, ptr %79, i64 %82
  store ptr %78, ptr %83, align 8, !tbaa !3
  %84 = load ptr, ptr %3, align 8, !tbaa !12
  %85 = getelementptr inbounds nuw %struct.DdManager, ptr %84, i32 0, i32 19
  %86 = load ptr, ptr %85, align 8, !tbaa !37
  %87 = load i32, ptr %6, align 4, !tbaa !29
  %88 = sext i32 %87 to i64
  %89 = getelementptr inbounds %struct.DdSubtable, ptr %86, i64 %88
  %90 = getelementptr inbounds nuw %struct.DdSubtable, ptr %89, i32 0, i32 5
  %91 = load i32, ptr %90, align 8, !tbaa !38
  %92 = add i32 %91, 1
  store i32 %92, ptr %90, align 8, !tbaa !38
  %93 = load ptr, ptr %5, align 8, !tbaa !3
  %94 = getelementptr inbounds nuw %struct.DdNode, ptr %93, i32 0, i32 3
  %95 = getelementptr inbounds nuw %struct.DdChildren, ptr %94, i32 0, i32 0
  %96 = load ptr, ptr %95, align 8, !tbaa !36
  store ptr %96, ptr %5, align 8, !tbaa !3
  br label %97

97:                                               ; preds = %62, %50
  br label %109

98:                                               ; preds = %34
  %99 = load ptr, ptr %5, align 8, !tbaa !3
  %100 = getelementptr inbounds nuw %struct.DdNode, ptr %99, i32 0, i32 1
  %101 = load i32, ptr %100, align 4, !tbaa !8
  %102 = add i32 %101, -1
  store i32 %102, ptr %100, align 4, !tbaa !8
  %103 = load ptr, ptr %7, align 8, !tbaa !28
  %104 = load i32, ptr %8, align 4, !tbaa !29
  %105 = add nsw i32 %104, -1
  store i32 %105, ptr %8, align 4, !tbaa !29
  %106 = sext i32 %105 to i64
  %107 = getelementptr inbounds ptr, ptr %103, i64 %106
  %108 = load ptr, ptr %107, align 8, !tbaa !3
  store ptr %108, ptr %5, align 8, !tbaa !3
  br label %109

109:                                              ; preds = %98, %97
  br label %110

110:                                              ; preds = %109
  %111 = load i32, ptr %8, align 4, !tbaa !29
  %112 = icmp ne i32 %111, 0
  br i1 %112, label %34, label %113, !llvm.loop !39

113:                                              ; preds = %110
  call void @llvm.lifetime.end.p0(i64 4, ptr %9) #4
  call void @llvm.lifetime.end.p0(i64 4, ptr %8) #4
  call void @llvm.lifetime.end.p0(i64 8, ptr %7) #4
  call void @llvm.lifetime.end.p0(i64 4, ptr %6) #4
  call void @llvm.lifetime.end.p0(i64 8, ptr %5) #4
  ret void
}