; Function Attrs: nofree norecurse nosync nounwind memory(readwrite, inaccessiblemem: none) uwtable
define void @Cudd_RecursiveDeref(ptr noundef captures(none) %0, ptr noundef %1) local_unnamed_addr #1 {
  %3 = getelementptr inbounds nuw i8, ptr %0, i64 280
  %4 = load ptr, ptr %3, align 8, !tbaa !11
  %5 = getelementptr inbounds nuw i8, ptr %0, i64 228
  %6 = load i32, ptr %5, align 4, !tbaa !25
  %7 = getelementptr inbounds nuw i8, ptr %0, i64 236
  %8 = load i32, ptr %7, align 4, !tbaa !26
  %9 = sub i32 %6, %8
  %10 = getelementptr inbounds nuw i8, ptr %0, i64 728
  %11 = load i32, ptr %10, align 8, !tbaa !27
  %12 = icmp ugt i32 %9, %11
  br i1 %12, label %13, label %14

13:                                               ; preds = %2
  store i32 %9, ptr %10, align 8, !tbaa !27
  br label %14

14:                                               ; preds = %13, %2
  %15 = ptrtoint ptr %1 to i64
  %16 = and i64 %15, -2
  %17 = inttoptr i64 %16 to ptr
  %18 = getelementptr inbounds nuw i8, ptr %0, i64 312
  %19 = getelementptr inbounds nuw i8, ptr %0, i64 152
  %20 = getelementptr inbounds nuw i8, ptr %0, i64 192
  br label %21

21:                                               ; preds = %60, %14
  %22 = phi i32 [ %8, %14 ], [ %61, %60 ]
  %.026 = phi i32 [ 1, %14 ], [ %.127, %60 ]
  %.0 = phi ptr [ %17, %14 ], [ %.1, %60 ]
  %23 = getelementptr inbounds nuw i8, ptr %.0, i64 4
  %24 = load i32, ptr %23, align 4, !tbaa !3
  %25 = icmp eq i32 %24, 1
  br i1 %25, label %26, label %55

26:                                               ; preds = %21
  store i32 0, ptr %23, align 4, !tbaa !3
  %27 = add i32 %22, 1
  store i32 %27, ptr %7, align 4, !tbaa !26
  %28 = load i32, ptr %.0, align 8, !tbaa !28
  %29 = icmp eq i32 %28, 2147483647
  br i1 %29, label %30, label %36

30:                                               ; preds = %26
  %31 = load i32, ptr %20, align 8, !tbaa !29
  %32 = add i32 %31, 1
  store i32 %32, ptr %20, align 8, !tbaa !29
  %33 = add nsw i32 %.026, -1
  %34 = sext i32 %33 to i64
  %35 = getelementptr inbounds ptr, ptr %4, i64 %34
  br label %60

36:                                               ; preds = %26
  %37 = load ptr, ptr %18, align 8, !tbaa !30
  %38 = zext i32 %28 to i64
  %39 = getelementptr inbounds nuw i32, ptr %37, i64 %38
  %40 = load i32, ptr %39, align 4, !tbaa !31
  %41 = getelementptr inbounds nuw i8, ptr %.0, i64 16
  %42 = getelementptr inbounds nuw i8, ptr %.0, i64 24
  %43 = load ptr, ptr %42, align 8, !tbaa !32
  %44 = ptrtoint ptr %43 to i64
  %45 = and i64 %44, -2
  %46 = inttoptr i64 %45 to ptr
  %47 = add nsw i32 %.026, 1
  %48 = sext i32 %.026 to i64
  %49 = getelementptr inbounds ptr, ptr %4, i64 %48
  store ptr %46, ptr %49, align 8, !tbaa !33
  %50 = load ptr, ptr %19, align 8, !tbaa !34
  %51 = sext i32 %40 to i64
  %52 = getelementptr inbounds %struct.DdSubtable, ptr %50, i64 %51, i32 5
  %53 = load i32, ptr %52, align 8, !tbaa !35
  %54 = add i32 %53, 1
  store i32 %54, ptr %52, align 8, !tbaa !35
  br label %60

55:                                               ; preds = %21
  %56 = add i32 %24, -1
  store i32 %56, ptr %23, align 4, !tbaa !3
  %57 = add nsw i32 %.026, -1
  %58 = sext i32 %57 to i64
  %59 = getelementptr inbounds ptr, ptr %4, i64 %58
  br label %60

60:                                               ; preds = %55, %36, %30
  %61 = phi i32 [ %27, %30 ], [ %27, %36 ], [ %22, %55 ]
  %.127 = phi i32 [ %33, %30 ], [ %47, %36 ], [ %57, %55 ]
  %.1.in = phi ptr [ %35, %30 ], [ %41, %36 ], [ %59, %55 ]
  %.1 = load ptr, ptr %.1.in, align 8, !tbaa !32
  %.not = icmp eq i32 %.127, 0
  br i1 %.not, label %62, label %21, !llvm.loop !36

62:                                               ; preds = %60
  ret void
}